target datalayout = "e-m:e-p270:32:32-p271:32:32-p272:64:64-i64:64-i128:128-f80:128-n8:16:32:64-S128"
target triple = "x86_64-pc-linux-gnu"

%struct.RelationData = type { %struct.RelFileLocator, ptr, i32, i32, i8, i8, i8, i8, i8, i32, i32, i32, i32, ptr, ptr, i32, %struct.LockInfoData, ptr, ptr, ptr, ptr, ptr, i8, ptr, ptr, ptr, ptr, ptr, ptr, i32, ptr, i8, ptr, ptr, i32, i8, i32, ptr, i8, ptr, ptr, ptr, ptr, ptr, ptr, ptr, i32, ptr, ptr, ptr, ptr, ptr, ptr, ptr, ptr, ptr, ptr, ptr, ptr, ptr, ptr, ptr, ptr, ptr, ptr, ptr, i32, i8, ptr }
%struct.RelFileLocator = type { i32, i32, i32 }
%struct.LockInfoData = type { %struct.LockRelId }
%struct.LockRelId = type { i32, i32 }
%struct.FormData_pg_class = type { i32, %struct.nameData, i32, i32, i32, i32, i32, i32, i32, i32, float, i32, i32, i8, i8, i8, i8, i16, i16, i8, i8, i8, i8, i8, i8, i8, i8, i32, i32, i32 }
%struct.nameData = type { [64 x i8] }
%struct.PgStat_EntryRef = type { ptr, ptr, i32, ptr, %struct.dlist_node }
%struct.dlist_node = type { ptr, ptr }
%struct.PgStat_TableStatus = type { i32, i8, ptr, %struct.PgStat_TableCounts, ptr }
%struct.PgStat_TableCounts = type { i64, i64, i64, i64, i64, i64, i64, i64, i8, i64, i64, i64, i64, i64 }

@MyDatabaseId = external global i32, align 4

; Function Attrs: nounwind uwtable
define internal ptr @pgstat_prep_relation_pending(i32 noundef %0, i1 noundef zeroext %1) #0 {
  %3 = alloca i32, align 4
  %4 = alloca i8, align 1
  %5 = alloca ptr, align 8
  %6 = alloca ptr, align 8
  store i32 %0, ptr %3, align 4
  %7 = zext i1 %1 to i8
  store i8 %7, ptr %4, align 1
  call void @llvm.lifetime.start.p0(i64 8, ptr %5) #6
  call void @llvm.lifetime.start.p0(i64 8, ptr %6) #6
  %8 = load i8, ptr %4, align 1, !range !4, !noundef !5
  %9 = trunc i8 %8 to i1
  br i1 %9, label %10, label %11

10:                                               ; preds = %2
  br label %13

11:                                               ; preds = %2
  %12 = load i32, ptr @MyDatabaseId, align 4
  br label %13

13:                                               ; preds = %11, %10
  %14 = phi i32 [ 0, %10 ], [ %12, %11 ]
  %15 = load i32, ptr %3, align 4
  %16 = zext i32 %15 to i64
  %17 = call ptr @pgstat_prep_pending_entry(i32 noundef 2, i32 noundef %14, i64 noundef %16, ptr noundef null)
  store ptr %17, ptr %5, align 8
  %18 = load ptr, ptr %5, align 8
  %19 = getelementptr inbounds nuw %struct.PgStat_EntryRef, ptr %18, i32 0, i32 3
  %20 = load ptr, ptr %19, align 8
  store ptr %20, ptr %6, align 8
  %21 = load i32, ptr %3, align 4
  %22 = load ptr, ptr %6, align 8
  %23 = getelementptr inbounds nuw %struct.PgStat_TableStatus, ptr %22, i32 0, i32 0
  store i32 %21, ptr %23, align 8
  %24 = load i8, ptr %4, align 1, !range !4, !noundef !5
  %25 = trunc i8 %24 to i1
  %26 = load ptr, ptr %6, align 8
  %27 = getelementptr inbounds nuw %struct.PgStat_TableStatus, ptr %26, i32 0, i32 1
  %28 = zext i1 %25 to i8
  store i8 %28, ptr %27, align 4
  %29 = load ptr, ptr %6, align 8
  call void @llvm.lifetime.end.p0(i64 8, ptr %6) #6
  call void @llvm.lifetime.end.p0(i64 8, ptr %5) #6
  ret ptr %29
}

; Function Attrs: nounwind uwtable
define dso_local void @pgstat_assoc_relation(ptr noundef %0) #0 {
  %2 = alloca ptr, align 8
  store ptr %0, ptr %2, align 8
  %3 = load ptr, ptr %2, align 8
  %4 = getelementptr inbounds nuw %struct.RelationData, ptr %3, i32 0, i32 15
  %5 = load i32, ptr %4, align 8
  %6 = load ptr, ptr %2, align 8
  %7 = getelementptr inbounds nuw %struct.RelationData, ptr %6, i32 0, i32 13
  %8 = load ptr, ptr %7, align 8
  %9 = getelementptr inbounds nuw %struct.FormData_pg_class, ptr %8, i32 0, i32 14
  %10 = load i8, ptr %9, align 1, !range !4, !noundef !5
  %11 = trunc i8 %10 to i1
  %12 = call ptr @pgstat_prep_relation_pending(i32 noundef %5, i1 noundef zeroext %11)
  %13 = load ptr, ptr %2, align 8
  %14 = getelementptr inbounds nuw %struct.RelationData, ptr %13, i32 0, i32 68
  store ptr %12, ptr %14, align 8
  %15 = load ptr, ptr %2, align 8
  %16 = load ptr, ptr %2, align 8
  %17 = getelementptr inbounds nuw %struct.RelationData, ptr %16, i32 0, i32 68
  %18 = load ptr, ptr %17, align 8
  %19 = getelementptr inbounds nuw %struct.PgStat_TableStatus, ptr %18, i32 0, i32 4
  store ptr %15, ptr %19, align 8
  ret void
}