; Function Attrs: nounwind uwtable
define dso_local void @pgstat_assoc_relation(ptr noundef initializes((480, 488)) %0) local_unnamed_addr #0 {
  %2 = getelementptr inbounds nuw i8, ptr %0, i64 72
  %3 = load i32, ptr %2, align 8
  %4 = getelementptr inbounds nuw i8, ptr %0, i64 56
  %5 = load ptr, ptr %4, align 8
  %6 = getelementptr inbounds nuw i8, ptr %5, i64 113
  %7 = load i8, ptr %6, align 1, !range !4, !noundef !5
  %8 = trunc nuw i8 %7 to i1
  %9 = load i32, ptr @MyDatabaseId, align 4
  %10 = select i1 %8, i32 0, i32 %9
  %11 = zext i32 %3 to i64
  %12 = tail call ptr @pgstat_prep_pending_entry(i32 noundef 2, i32 noundef %10, i64 noundef %11, ptr noundef null) #9
  %13 = getelementptr inbounds nuw i8, ptr %12, i64 24
  %14 = load ptr, ptr %13, align 8
  store i32 %3, ptr %14, align 8
  %15 = getelementptr inbounds nuw i8, ptr %14, i64 4
  store i8 %7, ptr %15, align 4
  %16 = getelementptr inbounds nuw i8, ptr %0, i64 480
  store ptr %14, ptr %16, align 8
  %17 = getelementptr inbounds nuw i8, ptr %14, i64 128
  store ptr %0, ptr %17, align 8
  ret void
}